target datalayout = "e-m:e-p270:32:32-p271:32:32-p272:64:64-i64:64-i128:128-f80:128-n8:16:32:64-S128"
target triple = "x86_64-pc-linux-gnu"

%struct.b2Vec2 = type { float, float }

@.str.32 = private unnamed_addr constant [6 x i8] c"%f,%f\00", align 1
@.str.33 = private unnamed_addr constant [3 x i8] c"%f\00", align 1

; Function Attrs: mustprogress nounwind uwtable
define dso_local noundef i32 @_ZN6Sample9ParsePathEPKc6b2Vec2PS2_ifb(ptr noundef %0, <2 x float> %1, ptr noundef %2, i32 noundef %3, float noundef %4, i1 noundef zeroext %5) #15 align 2 {
  %7 = alloca i32, align 4
  %8 = alloca %struct.b2Vec2, align 4
  %9 = alloca ptr, align 8
  %10 = alloca ptr, align 8
  %11 = alloca i32, align 4
  %12 = alloca float, align 4
  %13 = alloca i8, align 1
  %14 = alloca i32, align 4
  %15 = alloca %struct.b2Vec2, align 4
  %16 = alloca ptr, align 8
  %17 = alloca i8, align 1
  %18 = alloca float, align 4
  %19 = alloca float, align 4
  %20 = alloca %struct.b2Vec2, align 4
  %21 = alloca i32, align 4
  store <2 x float> %1, ptr %8, align 4
  store ptr %0, ptr %9, align 8, !tbaa !70
  store ptr %2, ptr %10, align 8, !tbaa !220
  store i32 %3, ptr %11, align 4, !tbaa !11
  store float %4, ptr %12, align 4, !tbaa !43
  %22 = zext i1 %5 to i8
  store i8 %22, ptr %13, align 1, !tbaa !76
  call void @llvm.lifetime.start.p0(i64 4, ptr %14) #19
  store i32 0, ptr %14, align 4, !tbaa !11
  call void @llvm.lifetime.start.p0(i64 8, ptr %15) #19
  call void @llvm.memset.p0.i64(ptr align 4 %15, i8 0, i64 8, i1 false)
  call void @llvm.lifetime.start.p0(i64 8, ptr %16) #19
  %23 = load ptr, ptr %9, align 8, !tbaa !70
  store ptr %23, ptr %16, align 8, !tbaa !70
  call void @llvm.lifetime.start.p0(i64 1, ptr %17) #19
  %24 = load ptr, ptr %16, align 8, !tbaa !70
  %25 = load i8, ptr %24, align 1, !tbaa !222
  store i8 %25, ptr %17, align 1, !tbaa !222
  br label %26

26:                                               ; preds = %215, %6
  %27 = load ptr, ptr %16, align 8, !tbaa !70
  %28 = load i8, ptr %27, align 1, !tbaa !222
  %29 = sext i8 %28 to i32
  %30 = icmp ne i32 %29, 0
  br i1 %30, label %31, label %216

31:                                               ; preds = %26
  %32 = load ptr, ptr %16, align 8, !tbaa !70
  %33 = load i8, ptr %32, align 1, !tbaa !222
  %34 = sext i8 %33 to i32
  %35 = call i32 @isdigit(i32 noundef %34) #23
  %36 = icmp eq i32 %35, 0
  br i1 %36, label %37, label %85

37:                                               ; preds = %31
  %38 = load ptr, ptr %16, align 8, !tbaa !70
  %39 = load i8, ptr %38, align 1, !tbaa !222
  %40 = sext i8 %39 to i32
  %41 = icmp ne i32 %40, 45
  br i1 %41, label %42, label %85

42:                                               ; preds = %37
  %43 = load ptr, ptr %16, align 8, !tbaa !70
  %44 = load i8, ptr %43, align 1, !tbaa !222
  store i8 %44, ptr %17, align 1, !tbaa !222
  %45 = load i8, ptr %17, align 1, !tbaa !222
  %46 = sext i8 %45 to i32
  %47 = icmp eq i32 %46, 77
  br i1 %47, label %76, label %48

48:                                               ; preds = %42
  %49 = load i8, ptr %17, align 1, !tbaa !222
  %50 = sext i8 %49 to i32
  %51 = icmp eq i32 %50, 76
  br i1 %51, label %76, label %52

52:                                               ; preds = %48
  %53 = load i8, ptr %17, align 1, !tbaa !222
  %54 = sext i8 %53 to i32
  %55 = icmp eq i32 %54, 72
  br i1 %55, label %76, label %56

56:                                               ; preds = %52
  %57 = load i8, ptr %17, align 1, !tbaa !222
  %58 = sext i8 %57 to i32
  %59 = icmp eq i32 %58, 86
  br i1 %59, label %76, label %60

60:                                               ; preds = %56
  %61 = load i8, ptr %17, align 1, !tbaa !222
  %62 = sext i8 %61 to i32
  %63 = icmp eq i32 %62, 109
  br i1 %63, label %76, label %64

64:                                               ; preds = %60
  %65 = load i8, ptr %17, align 1, !tbaa !222
  %66 = sext i8 %65 to i32
  %67 = icmp eq i32 %66, 108
  br i1 %67, label %76, label %68

68:                                               ; preds = %64
  %69 = load i8, ptr %17, align 1, !tbaa !222
  %70 = sext i8 %69 to i32
  %71 = icmp eq i32 %70, 104
  br i1 %71, label %76, label %72

72:                                               ; preds = %68
  %73 = load i8, ptr %17, align 1, !tbaa !222
  %74 = sext i8 %73 to i32
  %75 = icmp eq i32 %74, 118
  br i1 %75, label %76, label %79

76:                                               ; preds = %72, %68, %64, %60, %56, %52, %48, %42
  %77 = load ptr, ptr %16, align 8, !tbaa !70
  %78 = getelementptr inbounds i8, ptr %77, i64 2
  store ptr %78, ptr %16, align 8, !tbaa !70
  br label %79

79:                                               ; preds = %76, %72
  %80 = load i8, ptr %17, align 1, !tbaa !222
  %81 = sext i8 %80 to i32
  %82 = icmp eq i32 %81, 122
  br i1 %82, label %83, label %84

83:                                               ; preds = %79
  br label %216

84:                                               ; preds = %79
  br label %85

85:                                               ; preds = %84, %37, %31
  call void @llvm.lifetime.start.p0(i64 4, ptr %18) #19
  store float 0.000000e+00, ptr %18, align 4, !tbaa !43
  call void @llvm.lifetime.start.p0(i64 4, ptr %19) #19
  store float 0.000000e+00, ptr %19, align 4, !tbaa !43
  %86 = load i8, ptr %17, align 1, !tbaa !222
  %87 = sext i8 %86 to i32
  switch i32 %87, label %154 [
    i32 77, label %88
    i32 76, label %88
    i32 72, label %99
    i32 86, label %108
    i32 109, label %117
    i32 108, label %117
    i32 104, label %132
    i32 118, label %143
  ]

88:                                               ; preds = %85, %85
  %89 = load ptr, ptr %16, align 8, !tbaa !70
  %90 = call i32 (ptr, ptr, ...) @__isoc99_sscanf(ptr noundef %89, ptr noundef @.str.32, ptr noundef %18, ptr noundef %19) #19
  %91 = icmp eq i32 %90, 2
  br i1 %91, label %92, label %97

92:                                               ; preds = %88
  %93 = load float, ptr %18, align 4, !tbaa !43
  %94 = getelementptr inbounds nuw %struct.b2Vec2, ptr %15, i32 0, i32 0
  store float %93, ptr %94, align 4, !tbaa !85
  %95 = load float, ptr %19, align 4, !tbaa !43
  %96 = getelementptr inbounds nuw %struct.b2Vec2, ptr %15, i32 0, i32 1
  store float %95, ptr %96, align 4, !tbaa !86
  br label %98

97:                                               ; preds = %88
  br label %98

98:                                               ; preds = %97, %92
  br label %155

99:                                               ; preds = %85
  %100 = load ptr, ptr %16, align 8, !tbaa !70
  %101 = call i32 (ptr, ptr, ...) @__isoc99_sscanf(ptr noundef %100, ptr noundef @.str.33, ptr noundef %18) #19
  %102 = icmp eq i32 %101, 1
  br i1 %102, label %103, label %106

103:                                              ; preds = %99
  %104 = load float, ptr %18, align 4, !tbaa !43
  %105 = getelementptr inbounds nuw %struct.b2Vec2, ptr %15, i32 0, i32 0
  store float %104, ptr %105, align 4, !tbaa !85
  br label %107

106:                                              ; preds = %99
  br label %107

107:                                              ; preds = %106, %103
  br label %155

108:                                              ; preds = %85
  %109 = load ptr, ptr %16, align 8, !tbaa !70
  %110 = call i32 (ptr, ptr, ...) @__isoc99_sscanf(ptr noundef %109, ptr noundef @.str.33, ptr noundef %19) #19
  %111 = icmp eq i32 %110, 1
  br i1 %111, label %112, label %115

112:                                              ; preds = %108
  %113 = load float, ptr %19, align 4, !tbaa !43
  %114 = getelementptr inbounds nuw %struct.b2Vec2, ptr %15, i32 0, i32 1
  store float %113, ptr %114, align 4, !tbaa !86
  br label %116

115:                                              ; preds = %108
  br label %116

116:                                              ; preds = %115, %112
  br label %155

117:                                              ; preds = %85, %85
  %118 = load ptr, ptr %16, align 8, !tbaa !70
  %119 = call i32 (ptr, ptr, ...) @__isoc99_sscanf(ptr noundef %118, ptr noundef @.str.32, ptr noundef %18, ptr noundef %19) #19
  %120 = icmp eq i32 %119, 2
  br i1 %120, label %121, label %130

121:                                              ; preds = %117
  %122 = load float, ptr %18, align 4, !tbaa !43
  %123 = getelementptr inbounds nuw %struct.b2Vec2, ptr %15, i32 0, i32 0
  %124 = load float, ptr %123, align 4, !tbaa !85
  %125 = fadd float %124, %122
  store float %125, ptr %123, align 4, !tbaa !85
  %126 = load float, ptr %19, align 4, !tbaa !43
  %127 = getelementptr inbounds nuw %struct.b2Vec2, ptr %15, i32 0, i32 1
  %128 = load float, ptr %127, align 4, !tbaa !86
  %129 = fadd float %128, %126
  store float %129, ptr %127, align 4, !tbaa !86
  br label %131

130:                                              ; preds = %117
  br label %131

131:                                              ; preds = %130, %121
  br label %155

132:                                              ; preds = %85
  %133 = load ptr, ptr %16, align 8, !tbaa !70
  %134 = call i32 (ptr, ptr, ...) @__isoc99_sscanf(ptr noundef %133, ptr noundef @.str.33, ptr noundef %18) #19
  %135 = icmp eq i32 %134, 1
  br i1 %135, label %136, label %141

136:                                              ; preds = %132
  %137 = load float, ptr %18, align 4, !tbaa !43
  %138 = getelementptr inbounds nuw %struct.b2Vec2, ptr %15, i32 0, i32 0
  %139 = load float, ptr %138, align 4, !tbaa !85
  %140 = fadd float %139, %137
  store float %140, ptr %138, align 4, !tbaa !85
  br label %142

141:                                              ; preds = %132
  br label %142

142:                                              ; preds = %141, %136
  br label %155

143:                                              ; preds = %85
  %144 = load ptr, ptr %16, align 8, !tbaa !70
  %145 = call i32 (ptr, ptr, ...) @__isoc99_sscanf(ptr noundef %144, ptr noundef @.str.33, ptr noundef %19) #19
  %146 = icmp eq i32 %145, 1
  br i1 %146, label %147, label %152

147:                                              ; preds = %143
  %148 = load float, ptr %19, align 4, !tbaa !43
  %149 = getelementptr inbounds nuw %struct.b2Vec2, ptr %15, i32 0, i32 1
  %150 = load float, ptr %149, align 4, !tbaa !86
  %151 = fadd float %150, %148
  store float %151, ptr %149, align 4, !tbaa !86
  br label %153

152:                                              ; preds = %143
  br label %153

153:                                              ; preds = %152, %147
  br label %155

154:                                              ; preds = %85
  br label %155

155:                                              ; preds = %154, %153, %142, %131, %116, %107, %98
  call void @llvm.lifetime.start.p0(i64 8, ptr %20) #19
  %156 = getelementptr inbounds nuw %struct.b2Vec2, ptr %20, i32 0, i32 0
  %157 = load float, ptr %12, align 4, !tbaa !43
  %158 = getelementptr inbounds nuw %struct.b2Vec2, ptr %15, i32 0, i32 0
  %159 = load float, ptr %158, align 4, !tbaa !85
  %160 = getelementptr inbounds nuw %struct.b2Vec2, ptr %8, i32 0, i32 0
  %161 = load float, ptr %160, align 4, !tbaa !85
  %162 = fadd float %159, %161
  %163 = fmul float %157, %162
  store float %163, ptr %156, align 4, !tbaa !85
  %164 = getelementptr inbounds nuw %struct.b2Vec2, ptr %20, i32 0, i32 1
  %165 = load float, ptr %12, align 4, !tbaa !43
  %166 = fneg float %165
  %167 = getelementptr inbounds nuw %struct.b2Vec2, ptr %15, i32 0, i32 1
  %168 = load float, ptr %167, align 4, !tbaa !86
  %169 = getelementptr inbounds nuw %struct.b2Vec2, ptr %8, i32 0, i32 1
  %170 = load float, ptr %169, align 4, !tbaa !86
  %171 = fadd float %168, %170
  %172 = fmul float %166, %171
  store float %172, ptr %164, align 4, !tbaa !86
  %173 = load ptr, ptr %10, align 8, !tbaa !220
  %174 = load i32, ptr %14, align 4, !tbaa !11
  %175 = sext i32 %174 to i64
  %176 = getelementptr inbounds %struct.b2Vec2, ptr %173, i64 %175
  call void @llvm.memcpy.p0.p0.i64(ptr align 4 %176, ptr align 4 %20, i64 8, i1 false), !tbaa.struct !66
  call void @llvm.lifetime.end.p0(i64 8, ptr %20) #19
  %177 = load i32, ptr %14, align 4, !tbaa !11
  %178 = add nsw i32 %177, 1
  store i32 %178, ptr %14, align 4, !tbaa !11
  %179 = load i32, ptr %14, align 4, !tbaa !11
  %180 = load i32, ptr %11, align 4, !tbaa !11
  %181 = icmp eq i32 %179, %180
  br i1 %181, label %182, label %183

182:                                              ; preds = %155
  store i32 3, ptr %21, align 4
  br label %213

183:                                              ; preds = %155
  br label %184

184:                                              ; preds = %197, %183
  %185 = load ptr, ptr %16, align 8, !tbaa !70
  %186 = load i8, ptr %185, align 1, !tbaa !222
  %187 = sext i8 %186 to i32
  %188 = icmp ne i32 %187, 0
  br i1 %188, label %189, label %195

189:                                              ; preds = %184
  %190 = load ptr, ptr %16, align 8, !tbaa !70
  %191 = load i8, ptr %190, align 1, !tbaa !222
  %192 = sext i8 %191 to i32
  %193 = call i32 @isspace(i32 noundef %192) #23
  %194 = icmp eq i32 %193, 0
  br label %195

195:                                              ; preds = %189, %184
  %196 = phi i1 [ false, %184 ], [ %194, %189 ]
  br i1 %196, label %197, label %200

197:                                              ; preds = %195
  %198 = load ptr, ptr %16, align 8, !tbaa !70
  %199 = getelementptr inbounds nuw i8, ptr %198, i32 1
  store ptr %199, ptr %16, align 8, !tbaa !70
  br label %184, !llvm.loop !223

200:                                              ; preds = %195
  br label %201

201:                                              ; preds = %207, %200
  %202 = load ptr, ptr %16, align 8, !tbaa !70
  %203 = load i8, ptr %202, align 1, !tbaa !222
  %204 = sext i8 %203 to i32
  %205 = call i32 @isspace(i32 noundef %204) #23
  %206 = icmp ne i32 %205, 0
  br i1 %206, label %207, label %210

207:                                              ; preds = %201
  %208 = load ptr, ptr %16, align 8, !tbaa !70
  %209 = getelementptr inbounds nuw i8, ptr %208, i32 1
  store ptr %209, ptr %16, align 8, !tbaa !70
  br label %201, !llvm.loop !224

210:                                              ; preds = %201
  %211 = load ptr, ptr %16, align 8, !tbaa !70
  %212 = getelementptr inbounds i8, ptr %211, i64 0
  store ptr %212, ptr %16, align 8, !tbaa !70
  store i32 0, ptr %21, align 4
  br label %213

213:                                              ; preds = %210, %182
  call void @llvm.lifetime.end.p0(i64 4, ptr %19) #19
  call void @llvm.lifetime.end.p0(i64 4, ptr %18) #19
  %214 = load i32, ptr %21, align 4
  switch i32 %214, label %228 [
    i32 0, label %215
    i32 3, label %216
  ]

215:                                              ; preds = %213
  br label %26, !llvm.loop !225

216:                                              ; preds = %213, %83, %26
  %217 = load i32, ptr %14, align 4, !tbaa !11
  %218 = icmp eq i32 %217, 0
  br i1 %218, label %219, label %220

219:                                              ; preds = %216
  store i32 0, ptr %7, align 4
  store i32 1, ptr %21, align 4
  br label %226

220:                                              ; preds = %216
  %221 = load i8, ptr %13, align 1, !tbaa !76, !range !63, !noundef !64
  %222 = trunc i8 %221 to i1
  br i1 %222, label %223, label %224

223:                                              ; preds = %220
  br label %224

224:                                              ; preds = %223, %220
  %225 = load i32, ptr %14, align 4, !tbaa !11
  store i32 %225, ptr %7, align 4
  store i32 1, ptr %21, align 4
  br label %226

226:                                              ; preds = %224, %219
  call void @llvm.lifetime.end.p0(i64 1, ptr %17) #19
  call void @llvm.lifetime.end.p0(i64 8, ptr %16) #19
  call void @llvm.lifetime.end.p0(i64 8, ptr %15) #19
  call void @llvm.lifetime.end.p0(i64 4, ptr %14) #19
  %227 = load i32, ptr %7, align 4
  ret i32 %227

228:                                              ; preds = %213
  unreachable
}