; Function Attrs: mustprogress nofree nounwind uwtable
define dso_local noundef i32 @_ZN6Sample9ParsePathEPKc6b2Vec2PS2_ifb(ptr noundef readonly captures(none) %0, <2 x float> %1, ptr noundef writeonly captures(none) %2, i32 noundef %3, float noundef %4, i1 noundef zeroext %5) local_unnamed_addr #18 align 2 {
  %7 = alloca float, align 4
  %8 = alloca float, align 4
  %9 = load i8, ptr %0, align 1, !tbaa !195
  %.not89 = icmp eq i8 %9, 0
  br i1 %.not89, label %.loopexit, label %.lr.ph95

.lr.ph95:                                         ; preds = %6
  %.sroa.064.0.vec.extract = extractelement <2 x float> %1, i64 0
  %10 = fneg float %4
  %.sroa.064.4.vec.extract = extractelement <2 x float> %1, i64 1
  %11 = zext i32 %3 to i64
  br label %12

thread-pre-split:                                 ; preds = %.critedge
  call void @llvm.lifetime.end.p0(i64 4, ptr nonnull %8) #23
  call void @llvm.lifetime.end.p0(i64 4, ptr nonnull %7) #23
  %.pr = load i8, ptr %.5, align 1, !tbaa !195
  %.not = icmp eq i8 %.pr, 0
  br i1 %.not, label %.loopexit, label %12

12:                                               ; preds = %.lr.ph95, %thread-pre-split
  %indvars.iv = phi i64 [ 0, %.lr.ph95 ], [ %indvars.iv.next, %thread-pre-split ]
  %.06794 = phi i32 [ 0, %.lr.ph95 ], [ %61, %thread-pre-split ]
  %.06893 = phi i8 [ %9, %.lr.ph95 ], [ %.169, %thread-pre-split ]
  %.07092 = phi ptr [ %0, %.lr.ph95 ], [ %.5, %thread-pre-split ]
  %.sroa.10.091 = phi float [ 0.000000e+00, %.lr.ph95 ], [ %.sroa.10.1, %thread-pre-split ]
  %.sroa.048.090 = phi float [ 0.000000e+00, %.lr.ph95 ], [ %.sroa.048.1, %thread-pre-split ]
  %13 = phi i8 [ %9, %.lr.ph95 ], [ %.pr, %thread-pre-split ]
  %14 = sext i8 %13 to i32
  %15 = add nsw i32 %14, -48
  %isdigit = icmp ult i32 %15, 10
  %.not74 = icmp eq i8 %13, 45
  %or.cond77 = or i1 %.not74, %isdigit
  br i1 %or.cond77, label %18, label %16

16:                                               ; preds = %12
  switch i8 %13, label %18 [
    i8 118, label %.thread
    i8 109, label %.thread
    i8 108, label %.thread
    i8 104, label %.thread
    i8 86, label %.thread
    i8 77, label %.thread
    i8 76, label %.thread
    i8 72, label %.thread
    i8 122, label %.loopexit.loopexit.split.loop.exit
  ]

.thread:                                          ; preds = %16, %16, %16, %16, %16, %16, %16, %16
  %17 = getelementptr inbounds nuw i8, ptr %.07092, i64 2
  br label %18

18:                                               ; preds = %16, %.thread, %12
  %.171 = phi ptr [ %.07092, %12 ], [ %17, %.thread ], [ %.07092, %16 ]
  %.169 = phi i8 [ %.06893, %12 ], [ %13, %.thread ], [ %13, %16 ]
  call void @llvm.lifetime.start.p0(i64 4, ptr nonnull %7) #23
  store float 0.000000e+00, ptr %7, align 4, !tbaa !196
  call void @llvm.lifetime.start.p0(i64 4, ptr nonnull %8) #23
  store float 0.000000e+00, ptr %8, align 4, !tbaa !196
  switch i8 %.169, label %55 [
    i8 77, label %19
    i8 76, label %19
    i8 72, label %25
    i8 86, label %30
    i8 109, label %35
    i8 108, label %35
    i8 104, label %43
    i8 118, label %49
  ]

19:                                               ; preds = %18, %18
  %20 = call i32 (ptr, ptr, ...) @__isoc99_sscanf(ptr noundef %.171, ptr noundef nonnull @.str.32, ptr noundef nonnull %7, ptr noundef nonnull %8) #23
  %21 = icmp eq i32 %20, 2
  br i1 %21, label %22, label %55

22:                                               ; preds = %19
  %23 = load float, ptr %7, align 4, !tbaa !196
  %24 = load float, ptr %8, align 4, !tbaa !196
  br label %55

25:                                               ; preds = %18
  %26 = call i32 (ptr, ptr, ...) @__isoc99_sscanf(ptr noundef %.171, ptr noundef nonnull @.str.33, ptr noundef nonnull %7) #23
  %27 = icmp eq i32 %26, 1
  br i1 %27, label %28, label %55

28:                                               ; preds = %25
  %29 = load float, ptr %7, align 4, !tbaa !196
  br label %55

30:                                               ; preds = %18
  %31 = call i32 (ptr, ptr, ...) @__isoc99_sscanf(ptr noundef %.171, ptr noundef nonnull @.str.33, ptr noundef nonnull %8) #23
  %32 = icmp eq i32 %31, 1
  br i1 %32, label %33, label %55

33:                                               ; preds = %30
  %34 = load float, ptr %8, align 4, !tbaa !196
  br label %55

35:                                               ; preds = %18, %18
  %36 = call i32 (ptr, ptr, ...) @__isoc99_sscanf(ptr noundef %.171, ptr noundef nonnull @.str.32, ptr noundef nonnull %7, ptr noundef nonnull %8) #23
  %37 = icmp eq i32 %36, 2
  br i1 %37, label %38, label %55

38:                                               ; preds = %35
  %39 = load float, ptr %7, align 4, !tbaa !196
  %40 = fadd float %.sroa.048.090, %39
  %41 = load float, ptr %8, align 4, !tbaa !196
  %42 = fadd float %.sroa.10.091, %41
  br label %55

43:                                               ; preds = %18
  %44 = call i32 (ptr, ptr, ...) @__isoc99_sscanf(ptr noundef %.171, ptr noundef nonnull @.str.33, ptr noundef nonnull %7) #23
  %45 = icmp eq i32 %44, 1
  br i1 %45, label %46, label %55

46:                                               ; preds = %43
  %47 = load float, ptr %7, align 4, !tbaa !196
  %48 = fadd float %.sroa.048.090, %47
  br label %55

49:                                               ; preds = %18
  %50 = call i32 (ptr, ptr, ...) @__isoc99_sscanf(ptr noundef %.171, ptr noundef nonnull @.str.33, ptr noundef nonnull %8) #23
  %51 = icmp eq i32 %50, 1
  br i1 %51, label %52, label %55

52:                                               ; preds = %49
  %53 = load float, ptr %8, align 4, !tbaa !196
  %54 = fadd float %.sroa.10.091, %53
  br label %55

55:                                               ; preds = %18, %52, %49, %46, %43, %38, %35, %33, %30, %28, %25, %22, %19
  %.sroa.048.1 = phi float [ %.sroa.048.090, %18 ], [ %.sroa.048.090, %52 ], [ %.sroa.048.090, %49 ], [ %48, %46 ], [ %.sroa.048.090, %43 ], [ %40, %38 ], [ %.sroa.048.090, %35 ], [ %.sroa.048.090, %33 ], [ %.sroa.048.090, %30 ], [ %29, %28 ], [ %.sroa.048.090, %25 ], [ %23, %22 ], [ %.sroa.048.090, %19 ]
  %.sroa.10.1 = phi float [ %.sroa.10.091, %18 ], [ %54, %52 ], [ %.sroa.10.091, %49 ], [ %.sroa.10.091, %46 ], [ %.sroa.10.091, %43 ], [ %42, %38 ], [ %.sroa.10.091, %35 ], [ %34, %33 ], [ %.sroa.10.091, %30 ], [ %.sroa.10.091, %28 ], [ %.sroa.10.091, %25 ], [ %24, %22 ], [ %.sroa.10.091, %19 ]
  %56 = fadd float %.sroa.064.0.vec.extract, %.sroa.048.1
  %57 = fmul float %4, %56
  %58 = fadd float %.sroa.064.4.vec.extract, %.sroa.10.1
  %59 = fmul float %58, %10
  %60 = getelementptr inbounds nuw %struct.b2Vec2, ptr %2, i64 %indvars.iv
  store float %57, ptr %60, align 4, !tbaa !196
  %.sroa.4.0..sroa_idx = getelementptr inbounds nuw i8, ptr %60, i64 4
  store float %59, ptr %.sroa.4.0..sroa_idx, align 4, !tbaa !196
  %indvars.iv.next = add nuw nsw i64 %indvars.iv, 1
  %61 = add nuw nsw i32 %.06794, 1
  %62 = icmp eq i64 %indvars.iv.next, %11
  br i1 %62, label %75, label %.preheader

.preheader:                                       ; preds = %55
  %63 = load i8, ptr %.171, align 1, !tbaa !195
  %.not7585 = icmp eq i8 %63, 0
  br i1 %.not7585, label %.critedge.preheader, label %.lr.ph

.lr.ph:                                           ; preds = %.preheader, %68
  %64 = phi i8 [ %70, %68 ], [ %63, %.preheader ]
  %.486 = phi ptr [ %69, %68 ], [ %.171, %.preheader ]
  %65 = sext i8 %64 to i32
  %66 = call i32 @isspace(i32 noundef %65) #25
  %67 = icmp eq i32 %66, 0
  br i1 %67, label %68, label %.critedge.preheader

68:                                               ; preds = %.lr.ph
  %69 = getelementptr inbounds nuw i8, ptr %.486, i64 1
  %70 = load i8, ptr %69, align 1, !tbaa !195
  %.not75 = icmp eq i8 %70, 0
  br i1 %.not75, label %.critedge.preheader, label %.lr.ph, !llvm.loop !197

.critedge.preheader:                              ; preds = %.lr.ph, %68, %.preheader
  %.5.ph = phi ptr [ %.171, %.preheader ], [ %.486, %.lr.ph ], [ %69, %68 ]
  br label %.critedge

.critedge:                                        ; preds = %.critedge.preheader, %.critedge
  %.5 = phi ptr [ %74, %.critedge ], [ %.5.ph, %.critedge.preheader ]
  %71 = load i8, ptr %.5, align 1, !tbaa !195
  %72 = sext i8 %71 to i32
  %73 = call i32 @isspace(i32 noundef %72) #25
  %.not76 = icmp eq i32 %73, 0
  %74 = getelementptr inbounds nuw i8, ptr %.5, i64 1
  br i1 %.not76, label %thread-pre-split, label %.critedge, !llvm.loop !198

75:                                               ; preds = %55
  call void @llvm.lifetime.end.p0(i64 4, ptr nonnull %8) #23
  call void @llvm.lifetime.end.p0(i64 4, ptr nonnull %7) #23
  br label %.loopexit

.loopexit.loopexit.split.loop.exit:               ; preds = %16
  %76 = trunc nuw nsw i64 %indvars.iv to i32
  br label %.loopexit

.loopexit:                                        ; preds = %thread-pre-split, %.loopexit.loopexit.split.loop.exit, %6, %75
  %.1 = phi i32 [ %3, %75 ], [ 0, %6 ], [ %76, %.loopexit.loopexit.split.loop.exit ], [ %61, %thread-pre-split ]
  ret i32 %.1
}